Certificate:
    Data:
        Version: 3 (0x2)
        Serial Number: 137826015233 (0x2017121801)
        Signature Algorithm: sha256WithRSAEncryption
        Issuer: C = US, O = Demo1, CN = CA1
        Validity
            Not Before: Dec 18 17:15:18 2017 GMT
            Not After : Dec 19 17:15:18 2032 GMT
        Subject: C = US, ST = State, L = City, O = Company, OU = Unit, CN = *.example.com, emailAddress = wildcard@example.com
        Subject Public Key Info:
            Public Key Algorithm: rsaEncryption
                RSA Public-Key: (2048 bit)
                Modulus:
                    00:bd:5e:c6:d8:01:f5:cf:85:fe:eb:9b:60:dd:e8:
                    8a:98:09:59:5a:71:fc:a2:ad:38:73:0a:cd:d9:5e:
                    d5:6d:23:2e:01:4e:b0:c7:12:eb:8a:8e:08:80:9b:
                    83:68:c0:b9:fd:b8:04:30:0b:15:fd:36:a9:a1:90:
                    0a:30:8f:6d:5f:81:12:17:b7:90:1f:41:30:7a:85:
                    29:07:69:56:ec:d3:58:9e:59:22:f6:38:20:0d:92:
                    45:99:79:c4:1e:21:6a:53:1c:52:34:b1:d5:0c:4e:
                    41:15:5a:41:93:75:13:e0:fd:01:8c:f8:e2:34:2d:
                    70:9c:78:03:fb:26:a9:fe:c4:cb:5a:bc:1a:eb:9d:
                    3f:7c:2e:3e:9a:2c:60:67:fe:49:6d:38:38:85:72:
                    8d:ba:29:bb:cd:c9:98:67:a2:d6:e2:7c:11:07:99:
                    89:37:2c:c3:c3:0e:54:fd:12:01:f8:9e:a0:1e:df:
                    e9:8f:55:74:1a:2e:f6:1d:ce:57:a3:d5:65:be:af:
                    f2:1a:8c:ea:42:e7:f8:ea:ab:45:10:e8:b2:1f:f7:
                    af:64:8d:f5:b4:ca:86:24:d3:96:0b:83:f3:89:ff:
                    3c:96:a7:56:25:59:2d:7c:e1:80:08:94:52:53:71:
                    8a:d6:7e:2d:4e:5c:82:95:2f:a0:62:78:59:65:06:
                    01:b7
                Exponent: 65537 (0x10001)
        X509v3 extensions:
            X509v3 Basic Constraints: critical
                CA:FALSE
            X509v3 Extended Key Usage: 
                TLS Web Server Authentication, TLS Web Client Authentication
            X509v3 Certificate Policies: 
                Policy: 1.2.4.5
                Policy: 1.1.3.4

            X509v3 Subject Alternative Name: 
                DNS:*.example.com, email:wildcard@example.com, IP Address:10.20.30.40, IP Address:2001:DB8:148:100:0:0:0:31
            X509v3 Subject Key Identifier: 
                4B:42:86:BA:E2:BE:3D:40:0D:11:1D:66:E7:BE:94:39:B2:84:D3:06
            X509v3 Authority Key Identifier: 
                keyid:C8:1C:DA:92:0A:A9:48:08:3A:76:76:15:38:04:F1:34:D9:15:D0:20

    Signature Algorithm: sha256WithRSAEncryption
         20:cb:ec:9d:8b:e8:2d:61:74:5e:30:b0:95:88:4e:80:09:df:
         c9:7f:b0:c9:d2:19:4e:2c:5a:eb:02:0f:ce:e8:8a:52:fa:22:
         59:b1:c3:7b:39:db:f0:7d:9a:91:19:ef:d5:f7:73:5b:6b:47:
         3d:48:c3:c7:4a:2e:7b:7f:3d:ff:65:53:11:21:95:2c:00:fd:
         39:76:25:8e:05:68:c4:b9:cc:bd:ca:28:60:bf:6d:4c:00:d0:
         4e:b4:4c:62:6b:34:48:2c:60:b9:33:76:3f:3b:72:57:11:ec:
         f4:2d:5f:b3:f1:a1:c8:d4:5b:5f:23:6b:b0:ec:28:5a:0b:43:
         7f:e3
-----BEGIN CERTIFICATE-----
MIIDhjCCAu+gAwIBAgIFIBcSGAEwDQYJKoZIhvcNAQELBQAwKzELMAkGA1UEBhMC
VVMxDjAMBgNVBAoTBURlbW8xMQwwCgYDVQQDEwNDQTEwHhcNMTcxMjE4MTcxNTE4
WhcNMzIxMjE5MTcxNTE4WjCBijELMAkGA1UEBhMCVVMxDjAMBgNVBAgMBVN0YXRl
MQ0wCwYDVQQHDARDaXR5MRAwDgYDVQQKDAdDb21wYW55MQ0wCwYDVQQLDARVbml0
MRYwFAYDVQQDDA0qLmV4YW1wbGUuY29tMSMwIQYJKoZIhvcNAQkBFhR3aWxkY2Fy
ZEBleGFtcGxlLmNvbTCCASIwDQYJKoZIhvcNAQEBBQADggEPADCCAQoCggEBAL1e
xtgB9c+F/uubYN3oipgJWVpx/KKtOHMKzdle1W0jLgFOsMcS64qOCICbg2jAuf24
BDALFf02qaGQCjCPbV+BEhe3kB9BMHqFKQdpVuzTWJ5ZIvY4IA2SRZl5xB4halMc
UjSx1QxOQRVaQZN1E+D9AYz44jQtcJx4A/smqf7Ey1q8GuudP3wuPposYGf+SW04
OIVyjbopu83JmGei1uJ8EQeZiTcsw8MOVP0SAfieoB7f6Y9VdBou9h3OV6PVZb6v
8hqM6kLn+OqrRRDosh/3r2SN9bTKhiTTlguD84n/PJanViVZLXzhgAiUUlNxitZ+
LU5cgpUvoGJ4WWUGAbcCAwEAAaOB0TCBzjAMBgNVHRMBAf8EAjAAMB0GA1UdJQQW
MBQGCCsGAQUFBwMBBggrBgEFBQcDAjAXBgNVHSAEEDAOMAUGAyoEBTAFBgMpAwQw
RgYDVR0RBD8wPYINKi5leGFtcGxlLmNvbYEUd2lsZGNhcmRAZXhhbXBsZS5jb22H
BAoUHiiHECABDbgBSAEAAAAAAAAAADEwHQYDVR0OBBYEFEtChrrivj1ADREdZue+
lDmyhNMGMB8GA1UdIwQYMBaAFMgc2pIKqUgIOnZ2FTgE8TTZFdAgMA0GCSqGSIb3
DQEBCwUAA4GBACDL7J2L6C1hdF4wsJWIToAJ38l/sMnSGU4sWusCD87oilL6Ilmx
w3s52/B9mpEZ79X3c1trRz1Iw8dKLnt/Pf9lUxEhlSwA/Tl2JY4FaMS5zL3KKGC/
bUwA0E60TGJrNEgsYLkzdj87clcR7PQtX7PxocjUW18ja7DsKFoLQ3/j
-----END CERTIFICATE-----
