Certificate:
    Data:
        Version: 3 (0x2)
        Serial Number: 137858712322 (0x2019050302)
        Signature Algorithm: sha256WithRSAEncryption
        Issuer: C = US, O = Demo1, CN = CA1
        Validity
            Not Before: May  2 21:25:06 2019 GMT
            Not After : May  3 21:25:06 2034 GMT
        Subject: C = US, ST = State, L = City, O = Company, OU = Unit, CN = *.example.com, emailAddress = wildcard@example.com
        Subject Public Key Info:
            Public Key Algorithm: rsaEncryption
                RSA Public-Key: (2048 bit)
                Modulus:
                    00:bd:5e:c6:d8:01:f5:cf:85:fe:eb:9b:60:dd:e8:
                    8a:98:09:59:5a:71:fc:a2:ad:38:73:0a:cd:d9:5e:
                    d5:6d:23:2e:01:4e:b0:c7:12:eb:8a:8e:08:80:9b:
                    83:68:c0:b9:fd:b8:04:30:0b:15:fd:36:a9:a1:90:
                    0a:30:8f:6d:5f:81:12:17:b7:90:1f:41:30:7a:85:
                    29:07:69:56:ec:d3:58:9e:59:22:f6:38:20:0d:92:
                    45:99:79:c4:1e:21:6a:53:1c:52:34:b1:d5:0c:4e:
                    41:15:5a:41:93:75:13:e0:fd:01:8c:f8:e2:34:2d:
                    70:9c:78:03:fb:26:a9:fe:c4:cb:5a:bc:1a:eb:9d:
                    3f:7c:2e:3e:9a:2c:60:67:fe:49:6d:38:38:85:72:
                    8d:ba:29:bb:cd:c9:98:67:a2:d6:e2:7c:11:07:99:
                    89:37:2c:c3:c3:0e:54:fd:12:01:f8:9e:a0:1e:df:
                    e9:8f:55:74:1a:2e:f6:1d:ce:57:a3:d5:65:be:af:
                    f2:1a:8c:ea:42:e7:f8:ea:ab:45:10:e8:b2:1f:f7:
                    af:64:8d:f5:b4:ca:86:24:d3:96:0b:83:f3:89:ff:
                    3c:96:a7:56:25:59:2d:7c:e1:80:08:94:52:53:71:
                    8a:d6:7e:2d:4e:5c:82:95:2f:a0:62:78:59:65:06:
                    01:b7
                Exponent: 65537 (0x10001)
        X509v3 extensions:
            X509v3 Basic Constraints: critical
                CA:FALSE
            X509v3 Extended Key Usage: 
                TLS Web Server Authentication, TLS Web Client Authentication
            X509v3 Certificate Policies: 
                Policy: 1.2.4.5
                Policy: 1.1.3.4

            X509v3 Subject Alternative Name: 
                DNS:*.example.com, email:wildcard@example.com, IP Address:10.20.30.40, IP Address:2001:DB8:148:100:0:0:0:31
            X509v3 Subject Key Identifier: 
                4B:42:86:BA:E2:BE:3D:40:0D:11:1D:66:E7:BE:94:39:B2:84:D3:06
            X509v3 Authority Key Identifier: 
                keyid:04:AA:D2:DA:BA:F8:27:37:1F:CC:D1:5D:E6:35:D6:1A:B0:FF:A3:9E

    Signature Algorithm: sha256WithRSAEncryption
         41:ac:0b:fc:0c:dc:8c:d7:85:3e:53:56:79:ce:c0:21:dc:0a:
         d4:ac:f5:82:2e:fb:3e:b2:6c:3f:b7:dd:c4:7c:f8:03:d5:df:
         4c:b0:38:b9:4d:85:5f:92:8e:ce:c4:b9:97:38:86:51:b4:4c:
         46:5d:87:34:df:ae:c0:42:df:0c:dc:7b:16:19:08:88:70:2c:
         27:e8:4c:b7:9b:0a:07:a9:ee:39:94:0d:a3:21:fe:e0:da:ff:
         f6:67:cd:9d:fc:f8:a8:32:5b:14:c9:aa:b2:f6:17:1a:74:06:
         f8:46:67:de:5d:b4:63:e7:31:c6:7e:89:af:67:cc:c2:2c:f8:
         82:4a:a4:df:63:5d:e4:0f:22:d6:17:33:07:f6:9b:cb:82:23:
         38:ad:9c:6f:f3:28:8b:90:62:26:a1:ab:41:bf:28:9b:8f:cf:
         30:9f:ff:41:47:ad:f9:88:91:97:e7:de:5c:3f:61:90:65:b7:
         29:15:e5:72:fb:41:37:d9:3c:d7:ed:a4:9e:63:66:70:c9:f9:
         29:c6:63:da:87:cd:80:0f:a3:54:57:20:db:d8:10:6a:69:da:
         e2:57:9e:24:1e:1a:36:0f:4b:a6:4f:8d:dc:4c:a4:8c:16:52:
         a1:4d:71:9a:f8:f0:4d:9b:d9:7f:76:51:74:40:9d:68:21:0a:
         09:2c:9f:1c
-----BEGIN CERTIFICATE-----
MIIEBzCCAu+gAwIBAgIFIBkFAwIwDQYJKoZIhvcNAQELBQAwKzELMAkGA1UEBhMC
VVMxDjAMBgNVBAoMBURlbW8xMQwwCgYDVQQDDANDQTEwHhcNMTkwNTAyMjEyNTA2
WhcNMzQwNTAzMjEyNTA2WjCBijELMAkGA1UEBhMCVVMxDjAMBgNVBAgMBVN0YXRl
MQ0wCwYDVQQHDARDaXR5MRAwDgYDVQQKDAdDb21wYW55MQ0wCwYDVQQLDARVbml0
MRYwFAYDVQQDDA0qLmV4YW1wbGUuY29tMSMwIQYJKoZIhvcNAQkBFhR3aWxkY2Fy
ZEBleGFtcGxlLmNvbTCCASIwDQYJKoZIhvcNAQEBBQADggEPADCCAQoCggEBAL1e
xtgB9c+F/uubYN3oipgJWVpx/KKtOHMKzdle1W0jLgFOsMcS64qOCICbg2jAuf24
BDALFf02qaGQCjCPbV+BEhe3kB9BMHqFKQdpVuzTWJ5ZIvY4IA2SRZl5xB4halMc
UjSx1QxOQRVaQZN1E+D9AYz44jQtcJx4A/smqf7Ey1q8GuudP3wuPposYGf+SW04
OIVyjbopu83JmGei1uJ8EQeZiTcsw8MOVP0SAfieoB7f6Y9VdBou9h3OV6PVZb6v
8hqM6kLn+OqrRRDosh/3r2SN9bTKhiTTlguD84n/PJanViVZLXzhgAiUUlNxitZ+
LU5cgpUvoGJ4WWUGAbcCAwEAAaOB0TCBzjAMBgNVHRMBAf8EAjAAMB0GA1UdJQQW
MBQGCCsGAQUFBwMBBggrBgEFBQcDAjAXBgNVHSAEEDAOMAUGAyoEBTAFBgMpAwQw
RgYDVR0RBD8wPYINKi5leGFtcGxlLmNvbYEUd2lsZGNhcmRAZXhhbXBsZS5jb22H
BAoUHiiHECABDbgBSAEAAAAAAAAAADEwHQYDVR0OBBYEFEtChrrivj1ADREdZue+
lDmyhNMGMB8GA1UdIwQYMBaAFASq0tq6+Cc3H8zRXeY11hqw/6OeMA0GCSqGSIb3
DQEBCwUAA4IBAQBBrAv8DNyM14U+U1Z5zsAh3ArUrPWCLvs+smw/t93EfPgD1d9M
sDi5TYVfko7OxLmXOIZRtExGXYc0367AQt8M3HsWGQiIcCwn6Ey3mwoHqe45lA2j
If7g2v/2Z82d/PioMlsUyaqy9hcadAb4RmfeXbRj5zHGfomvZ8zCLPiCSqTfY13k
DyLWFzMH9pvLgiM4rZxv8yiLkGImoatBvyibj88wn/9BR635iJGX595cP2GQZbcp
FeVy+0E32TzX7aSeY2ZwyfkpxmPah82AD6NUVyDb2BBqadriV54kHho2D0umT43c
TKSMFlKhTXGa+PBNm9l/dlF0QJ1oIQoJLJ8c
-----END CERTIFICATE-----
